Certificate:
    Data:
        Version: 3 (0x2)
        Serial Number: 2 (0x2)
        Signature Algorithm: sha1WithRSAEncryption
        Issuer: C=NL, ST=N/A, L=N/A, O=Webzilla, CN=Webzilla CA/emailAddress=support@webzilla.com
        Validity
            Not Before: Mar 16 07:11:16 2018 GMT
            Not After : Mar 13 07:11:16 2028 GMT
        Subject: C=NL, ST=N/A, L=N/A, O=Webzilla, CN=client1/emailAddress=support@webzilla.com
        Subject Public Key Info:
            Public Key Algorithm: rsaEncryption
            RSA Public Key: (1024 bit)
                Modulus (1024 bit):
                    00:d0:b8:1c:1b:45:53:8a:81:2a:e9:6d:19:36:b8:
                    e4:4f:9e:7c:77:90:6f:78:e7:94:e3:52:98:50:17:
                    c5:36:0b:75:49:27:d8:7e:82:1e:a7:3f:12:46:31:
                    f5:41:03:5a:24:12:2c:5c:6d:51:da:6a:30:61:de:
                    dd:fe:a5:93:87:fc:ad:20:d9:96:1c:b9:5b:b8:18:
                    67:75:76:fc:a3:e2:1b:6b:36:0a:5d:bc:75:da:00:
                    f5:77:b5:8f:26:46:6c:07:49:e7:4a:9c:1d:b5:bd:
                    6b:62:60:37:64:79:5f:6c:71:da:a9:e6:c3:15:64:
                    ad:c6:72:3b:be:92:80:30:43
                Exponent: 65537 (0x10001)
        X509v3 extensions:
            X509v3 Basic Constraints: 
                CA:FALSE
            Netscape Comment: 
                OpenSSL Generated Certificate
            X509v3 Subject Key Identifier: 
                05:89:01:0B:AB:AE:FC:48:96:2E:4C:EB:47:32:30:7A:5F:C9:12:27
            X509v3 Authority Key Identifier: 
                keyid:E1:62:21:C7:D5:44:50:50:31:66:DE:E9:A9:53:46:0D:DE:BC:C6:30
                DirName:/C=NL/ST=N/A/L=N/A/O=Webzilla/CN=Webzilla CA/emailAddress=support@webzilla.com
                serial:84:76:F1:04:23:AA:AF:ED

    Signature Algorithm: sha1WithRSAEncryption
        3f:61:a1:55:38:78:81:aa:92:01:3d:41:82:86:27:1a:e3:a7:
        e5:60:df:7f:c1:8a:57:76:39:31:b9:f4:a0:46:53:a0:96:1b:
        6a:b9:56:53:fb:4c:c4:57:e8:55:e7:73:48:9c:13:9b:74:f1:
        55:73:08:6b:44:e7:ab:c5:3d:09:83:61:cb:13:37:ce:b9:f0:
        b6:d1:07:ab:0f:a2:3c:7a:f8:c3:9f:23:ce:7b:e4:c5:96:d3:
        46:37:b0:5d:ba:c2:99:c7:91:a1:99:ca:09:68:30:27:3d:f2:
        6d:94:ff:a2:78:7c:14:ba:3c:28:55:b1:0f:7f:f1:b9:92:f4:
        2c:a8
-----BEGIN CERTIFICATE-----
MIIDajCCAtOgAwIBAgIBAjANBgkqhkiG9w0BAQUFADB3MQswCQYDVQQGEwJOTDEM
MAoGA1UECBMDTi9BMQwwCgYDVQQHEwNOL0ExETAPBgNVBAoTCFdlYnppbGxhMRQw
EgYDVQQDEwtXZWJ6aWxsYSBDQTEjMCEGCSqGSIb3DQEJARYUc3VwcG9ydEB3ZWJ6
aWxsYS5jb20wHhcNMTgwMzE2MDcxMTE2WhcNMjgwMzEzMDcxMTE2WjBzMQswCQYD
VQQGEwJOTDEMMAoGA1UECBMDTi9BMQwwCgYDVQQHEwNOL0ExETAPBgNVBAoTCFdl
YnppbGxhMRAwDgYDVQQDEwdjbGllbnQxMSMwIQYJKoZIhvcNAQkBFhRzdXBwb3J0
QHdlYnppbGxhLmNvbTCBnzANBgkqhkiG9w0BAQEFAAOBjQAwgYkCgYEA0LgcG0VT
ioEq6W0ZNrjkT558d5BveOeU41KYUBfFNgt1SSfYfoIepz8SRjH1QQNaJBIsXG1R
2mowYd7d/qWTh/ytINmWHLlbuBhndXb8o+IbazYKXbx12gD1d7WPJkZsB0nnSpwd
tb1rYmA3ZHlfbHHaqebDFWStxnI7vpKAMEMCAwEAAaOCAQgwggEEMAkGA1UdEwQC
MAAwLAYJYIZIAYb4QgENBB8WHU9wZW5TU0wgR2VuZXJhdGVkIENlcnRpZmljYXRl
MB0GA1UdDgQWBBQFiQELq678SJYuTOtHMjB6X8kSJzCBqQYDVR0jBIGhMIGegBTh
YiHH1URQUDFm3umpU0YN3rzGMKF7pHkwdzELMAkGA1UEBhMCTkwxDDAKBgNVBAgT
A04vQTEMMAoGA1UEBxMDTi9BMREwDwYDVQQKEwhXZWJ6aWxsYTEUMBIGA1UEAxML
V2ViemlsbGEgQ0ExIzAhBgkqhkiG9w0BCQEWFHN1cHBvcnRAd2ViemlsbGEuY29t
ggkAhHbxBCOqr+0wDQYJKoZIhvcNAQEFBQADgYEAP2GhVTh4gaqSAT1BgoYnGuOn
5WDff8GKV3Y5Mbn0oEZToJYbarlWU/tMxFfoVedzSJwTm3TxVXMIa0Tnq8U9CYNh
yxM3zrnwttEHqw+iPHr4w58jznvkxZbTRjewXbrCmceRoZnKCWgwJz3ybZT/onh8
FLo8KFWxD3/xuZL0LKg=
-----END CERTIFICATE-----
